; Function Attrs: mustprogress uwtable
define void @_ZN7rocksdb21EncryptedWritableFile22GetPreallocationStatusEPmS1_(ptr noundef nonnull readonly align 8 captures(none) dereferenceable(64) %0, ptr noundef %1, ptr noundef %2) unnamed_addr #3 align 2 {
  %4 = getelementptr inbounds nuw i8, ptr %0, i64 40
  %5 = load ptr, ptr %4, align 8, !tbaa !108
  %6 = load ptr, ptr %5, align 8, !tbaa !13
  %7 = getelementptr inbounds nuw i8, ptr %6, i64 160
  %8 = load ptr, ptr %7, align 8
  tail call void %8(ptr noundef nonnull align 8 dereferenceable(33) %5, ptr noundef %1, ptr noundef %2)
  ret void
}